target datalayout = "e-m:e-p270:32:32-p271:32:32-p272:64:64-i64:64-i128:128-f80:128-n8:16:32:64-S128"
target triple = "x86_64-pc-linux-gnu"

%struct._object = type { %union.anon, ptr }
%union.anon = type { i64 }
%struct._randomstate = type { ptr, ptr }
%struct.anon = type { i32, i32 }
%struct.PyModuleObject = type { %struct._object, ptr, ptr, ptr, ptr, ptr }

@.str.2 = private unnamed_addr constant [8 x i8] c"__abs__\00", align 1
@Random_Type_spec = internal global { ptr, i32, i32, i32, [4 x i8], ptr } { ptr @.str.3, i32 2520, i32 0, i32 1024, [4 x i8] zeroinitializer, ptr @Random_Type_slots }, align 8

; Function Attrs: alwaysinline nounwind uwtable
define internal i32 @_Py_IsImmortal(ptr noundef %0) #4 {
  %2 = alloca ptr, align 8
  store ptr %0, ptr %2, align 8, !tbaa !3
  %3 = load ptr, ptr %2, align 8, !tbaa !3
  %4 = getelementptr inbounds nuw %struct._object, ptr %3, i32 0, i32 0
  %5 = getelementptr inbounds nuw %struct.anon, ptr %4, i32 0, i32 0
  %6 = load i32, ptr %5, align 8, !tbaa !16
  %7 = icmp slt i32 %6, 0
  %8 = zext i1 %7 to i32
  ret i32 %8
}

; Function Attrs: inlinehint nounwind uwtable
define internal ptr @_PyModule_GetState(ptr noundef %0) #3 {
  %2 = alloca ptr, align 8
  store ptr %0, ptr %2, align 8, !tbaa !3
  %3 = load ptr, ptr %2, align 8, !tbaa !3
  %4 = getelementptr inbounds nuw %struct.PyModuleObject, ptr %3, i32 0, i32 3
  %5 = load ptr, ptr %4, align 8, !tbaa !17
  ret ptr %5
}

; Function Attrs: alwaysinline nounwind uwtable
define internal void @Py_DECREF(ptr noundef %0) #4 {
  %2 = alloca ptr, align 8
  store ptr %0, ptr %2, align 8, !tbaa !3
  %3 = load ptr, ptr %2, align 8, !tbaa !3
  %4 = call i32 @_Py_IsImmortal(ptr noundef %3)
  %5 = icmp ne i32 %4, 0
  br i1 %5, label %6, label %7

6:                                                ; preds = %1
  br label %16

7:                                                ; preds = %1
  %8 = load ptr, ptr %2, align 8, !tbaa !3
  %9 = getelementptr inbounds nuw %struct._object, ptr %8, i32 0, i32 0
  %10 = getelementptr inbounds nuw %struct.anon, ptr %9, i32 0, i32 0
  %11 = load i32, ptr %10, align 8, !tbaa !16
  %12 = add i32 %11, -1
  store i32 %12, ptr %10, align 8, !tbaa !16
  %13 = icmp eq i32 %12, 0
  br i1 %13, label %14, label %16

14:                                               ; preds = %7
  %15 = load ptr, ptr %2, align 8, !tbaa !3
  call void @_Py_Dealloc(ptr noundef %15)
  br label %16

16:                                               ; preds = %6, %14, %7
  ret void
}

; Function Attrs: inlinehint nounwind uwtable
define internal ptr @get_random_state(ptr noundef %0) #3 {
  %2 = alloca ptr, align 8
  %3 = alloca ptr, align 8
  store ptr %0, ptr %2, align 8, !tbaa !3
  call void @llvm.lifetime.start.p0(i64 8, ptr %3) #7
  %4 = load ptr, ptr %2, align 8, !tbaa !3
  %5 = call ptr @_PyModule_GetState(ptr noundef %4)
  store ptr %5, ptr %3, align 8, !tbaa !8
  %6 = load ptr, ptr %3, align 8, !tbaa !8
  call void @llvm.lifetime.end.p0(i64 8, ptr %3) #7
  ret ptr %6
}

; Function Attrs: nounwind uwtable
define internal i32 @_random_exec(ptr noundef %0) #0 {
  %2 = alloca i32, align 4
  %3 = alloca ptr, align 8
  %4 = alloca ptr, align 8
  %5 = alloca i32, align 4
  %6 = alloca ptr, align 8
  %7 = alloca ptr, align 8
  store ptr %0, ptr %3, align 8, !tbaa !3
  call void @llvm.lifetime.start.p0(i64 8, ptr %4) #7
  %8 = load ptr, ptr %3, align 8, !tbaa !3
  %9 = call ptr @get_random_state(ptr noundef %8)
  store ptr %9, ptr %4, align 8, !tbaa !8
  %10 = load ptr, ptr %3, align 8, !tbaa !3
  %11 = call ptr @PyType_FromModuleAndSpec(ptr noundef %10, ptr noundef @Random_Type_spec, ptr noundef null)
  %12 = load ptr, ptr %4, align 8, !tbaa !8
  %13 = getelementptr inbounds nuw %struct._randomstate, ptr %12, i32 0, i32 0
  store ptr %11, ptr %13, align 8, !tbaa !9
  %14 = load ptr, ptr %4, align 8, !tbaa !8
  %15 = getelementptr inbounds nuw %struct._randomstate, ptr %14, i32 0, i32 0
  %16 = load ptr, ptr %15, align 8, !tbaa !9
  %17 = icmp eq ptr %16, null
  br i1 %17, label %18, label %19

18:                                               ; preds = %1
  store i32 -1, ptr %2, align 4
  store i32 1, ptr %5, align 4
  br label %53

19:                                               ; preds = %1
  %20 = load ptr, ptr %3, align 8, !tbaa !3
  %21 = load ptr, ptr %4, align 8, !tbaa !8
  %22 = getelementptr inbounds nuw %struct._randomstate, ptr %21, i32 0, i32 0
  %23 = load ptr, ptr %22, align 8, !tbaa !9
  %24 = call i32 @PyModule_AddType(ptr noundef %20, ptr noundef %23)
  %25 = icmp slt i32 %24, 0
  br i1 %25, label %26, label %27

26:                                               ; preds = %19
  store i32 -1, ptr %2, align 4
  store i32 1, ptr %5, align 4
  br label %53

27:                                               ; preds = %19
  call void @llvm.lifetime.start.p0(i64 8, ptr %6) #7
  %28 = call ptr @PyLong_FromLong(i64 noundef 0)
  store ptr %28, ptr %6, align 8, !tbaa !3
  %29 = load ptr, ptr %6, align 8, !tbaa !3
  %30 = icmp eq ptr %29, null
  br i1 %30, label %31, label %32

31:                                               ; preds = %27
  store i32 -1, ptr %2, align 4
  store i32 1, ptr %5, align 4
  br label %52

32:                                               ; preds = %27
  call void @llvm.lifetime.start.p0(i64 8, ptr %7) #7
  %33 = load ptr, ptr %6, align 8, !tbaa !3
  %34 = call ptr @PyObject_Type(ptr noundef %33)
  store ptr %34, ptr %7, align 8, !tbaa !3
  %35 = load ptr, ptr %6, align 8, !tbaa !3
  call void @Py_DECREF(ptr noundef %35)
  %36 = load ptr, ptr %7, align 8, !tbaa !3
  %37 = icmp eq ptr %36, null
  br i1 %37, label %38, label %39

38:                                               ; preds = %32
  store i32 -1, ptr %2, align 4
  store i32 1, ptr %5, align 4
  br label %51

39:                                               ; preds = %32
  %40 = load ptr, ptr %7, align 8, !tbaa !3
  %41 = call ptr @PyObject_GetAttrString(ptr noundef %40, ptr noundef @.str.2)
  %42 = load ptr, ptr %4, align 8, !tbaa !8
  %43 = getelementptr inbounds nuw %struct._randomstate, ptr %42, i32 0, i32 1
  store ptr %41, ptr %43, align 8, !tbaa !15
  %44 = load ptr, ptr %7, align 8, !tbaa !3
  call void @Py_DECREF(ptr noundef %44)
  %45 = load ptr, ptr %4, align 8, !tbaa !8
  %46 = getelementptr inbounds nuw %struct._randomstate, ptr %45, i32 0, i32 1
  %47 = load ptr, ptr %46, align 8, !tbaa !15
  %48 = icmp eq ptr %47, null
  br i1 %48, label %49, label %50

49:                                               ; preds = %39
  store i32 -1, ptr %2, align 4
  store i32 1, ptr %5, align 4
  br label %51

50:                                               ; preds = %39
  store i32 0, ptr %2, align 4
  store i32 1, ptr %5, align 4
  br label %51

51:                                               ; preds = %50, %49, %38
  call void @llvm.lifetime.end.p0(i64 8, ptr %7) #7
  br label %52

52:                                               ; preds = %51, %31
  call void @llvm.lifetime.end.p0(i64 8, ptr %6) #7
  br label %53

53:                                               ; preds = %52, %26, %18
  call void @llvm.lifetime.end.p0(i64 8, ptr %4) #7
  %54 = load i32, ptr %2, align 4
  ret i32 %54
}