; Function Attrs: nounwind uwtable
define internal range(i32 -1, 1) i32 @_random_exec(ptr noundef %0) #0 {
  %2 = getelementptr i8, ptr %0, i64 32
  %.val = load ptr, ptr %2, align 8, !tbaa !3
  %3 = tail call ptr @PyType_FromModuleAndSpec(ptr noundef %0, ptr noundef nonnull @Random_Type_spec, ptr noundef null) #8
  store ptr %3, ptr %.val, align 8, !tbaa !12
  %4 = icmp eq ptr %3, null
  br i1 %4, label %29, label %5

5:                                                ; preds = %1
  %6 = tail call i32 @PyModule_AddType(ptr noundef nonnull %0, ptr noundef nonnull %3) #8
  %7 = icmp slt i32 %6, 0
  br i1 %7, label %29, label %8

8:                                                ; preds = %5
  %9 = tail call ptr @PyLong_FromLong(i64 noundef 0) #8
  %10 = icmp eq ptr %9, null
  br i1 %10, label %29, label %11

11:                                               ; preds = %8
  %12 = tail call ptr @PyObject_Type(ptr noundef nonnull %9) #8
  %13 = load i32, ptr %9, align 8, !tbaa !15
  %.not.i = icmp sgt i32 %13, -1
  br i1 %.not.i, label %14, label %Py_DECREF.exit

14:                                               ; preds = %11
  %15 = add nsw i32 %13, -1
  store i32 %15, ptr %9, align 8, !tbaa !15
  %16 = icmp eq i32 %15, 0
  br i1 %16, label %17, label %Py_DECREF.exit

17:                                               ; preds = %14
  tail call void @_Py_Dealloc(ptr noundef nonnull %9) #8
  br label %Py_DECREF.exit

Py_DECREF.exit:                                   ; preds = %11, %14, %17
  %18 = icmp eq ptr %12, null
  br i1 %18, label %29, label %19

19:                                               ; preds = %Py_DECREF.exit
  %20 = tail call ptr @PyObject_GetAttrString(ptr noundef nonnull %12, ptr noundef nonnull @.str.2) #8
  %21 = getelementptr inbounds nuw i8, ptr %.val, i64 8
  store ptr %20, ptr %21, align 8, !tbaa !16
  %22 = load i32, ptr %12, align 8, !tbaa !15
  %.not.i17 = icmp sgt i32 %22, -1
  br i1 %.not.i17, label %23, label %Py_DECREF.exit18

23:                                               ; preds = %19
  %24 = add nsw i32 %22, -1
  store i32 %24, ptr %12, align 8, !tbaa !15
  %25 = icmp eq i32 %24, 0
  br i1 %25, label %26, label %Py_DECREF.exit18

26:                                               ; preds = %23
  tail call void @_Py_Dealloc(ptr noundef nonnull %12) #8
  br label %Py_DECREF.exit18

Py_DECREF.exit18:                                 ; preds = %19, %23, %26
  %27 = load ptr, ptr %21, align 8, !tbaa !16
  %28 = icmp eq ptr %27, null
  %. = sext i1 %28 to i32
  br label %29

29:                                               ; preds = %8, %Py_DECREF.exit18, %Py_DECREF.exit, %5, %1
  %.0 = phi i32 [ -1, %1 ], [ -1, %5 ], [ -1, %8 ], [ -1, %Py_DECREF.exit ], [ %., %Py_DECREF.exit18 ]
  ret i32 %.0
}